target datalayout = "e-m:e-p270:32:32-p271:32:32-p272:64:64-i64:64-i128:128-f80:128-n8:16:32:64-S128"
target triple = "x86_64-pc-linux-gnu"

%struct.ldbState = type { ptr, i32, i32, ptr, ptr, ptr, [64 x i32], i32, i32, i32, ptr, i32, i32, ptr, i64, i32 }

@ldb = dso_local global %struct.ldbState zeroinitializer, align 8

; Function Attrs: nounwind uwtable
define dso_local i32 @ldbIsBreakpoint(i32 noundef %0) #0 {
  %2 = alloca i32, align 4
  %3 = alloca i32, align 4
  %4 = alloca i32, align 4
  %5 = alloca i32, align 4
  store i32 %0, ptr %3, align 4, !tbaa !19
  call void @llvm.lifetime.start.p0(i64 4, ptr %4) #14
  store i32 0, ptr %4, align 4, !tbaa !19
  br label %6

6:                                                ; preds = %19, %1
  %7 = load i32, ptr %4, align 4, !tbaa !19
  %8 = load i32, ptr getelementptr inbounds nuw (%struct.ldbState, ptr @ldb, i32 0, i32 7), align 8, !tbaa !153
  %9 = icmp slt i32 %7, %8
  br i1 %9, label %10, label %22

10:                                               ; preds = %6
  %11 = load i32, ptr %4, align 4, !tbaa !19
  %12 = sext i32 %11 to i64
  %13 = getelementptr inbounds [64 x i32], ptr getelementptr inbounds nuw (%struct.ldbState, ptr @ldb, i32 0, i32 6), i64 0, i64 %12
  %14 = load i32, ptr %13, align 4, !tbaa !19
  %15 = load i32, ptr %3, align 4, !tbaa !19
  %16 = icmp eq i32 %14, %15
  br i1 %16, label %17, label %18

17:                                               ; preds = %10
  store i32 1, ptr %2, align 4
  store i32 1, ptr %5, align 4
  br label %23

18:                                               ; preds = %10
  br label %19

19:                                               ; preds = %18
  %20 = load i32, ptr %4, align 4, !tbaa !19
  %21 = add nsw i32 %20, 1
  store i32 %21, ptr %4, align 4, !tbaa !19
  br label %6, !llvm.loop !169

22:                                               ; preds = %6
  store i32 0, ptr %2, align 4
  store i32 1, ptr %5, align 4
  br label %23

23:                                               ; preds = %22, %17
  call void @llvm.lifetime.end.p0(i64 4, ptr %4) #14
  %24 = load i32, ptr %2, align 4
  ret i32 %24
}

; Function Attrs: nounwind uwtable
define dso_local i32 @ldbAddBreakpoint(i32 noundef %0) #0 {
  %2 = alloca i32, align 4
  %3 = alloca i32, align 4
  store i32 %0, ptr %3, align 4, !tbaa !19
  %4 = load i32, ptr %3, align 4, !tbaa !19
  %5 = icmp sle i32 %4, 0
  br i1 %5, label %10, label %6

6:                                                ; preds = %1
  %7 = load i32, ptr %3, align 4, !tbaa !19
  %8 = load i32, ptr getelementptr inbounds nuw (%struct.ldbState, ptr @ldb, i32 0, i32 11), align 8, !tbaa !79
  %9 = icmp sgt i32 %7, %8
  br i1 %9, label %10, label %11

10:                                               ; preds = %6, %1
  store i32 0, ptr %2, align 4
  br label %25

11:                                               ; preds = %6
  %12 = load i32, ptr %3, align 4, !tbaa !19
  %13 = call i32 @ldbIsBreakpoint(i32 noundef %12)
  %14 = icmp ne i32 %13, 0
  br i1 %14, label %24, label %15

15:                                               ; preds = %11
  %16 = load i32, ptr getelementptr inbounds nuw (%struct.ldbState, ptr @ldb, i32 0, i32 7), align 8, !tbaa !153
  %17 = icmp ne i32 %16, 64
  br i1 %17, label %18, label %24

18:                                               ; preds = %15
  %19 = load i32, ptr %3, align 4, !tbaa !19
  %20 = load i32, ptr getelementptr inbounds nuw (%struct.ldbState, ptr @ldb, i32 0, i32 7), align 8, !tbaa !153
  %21 = add nsw i32 %20, 1
  store i32 %21, ptr getelementptr inbounds nuw (%struct.ldbState, ptr @ldb, i32 0, i32 7), align 8, !tbaa !153
  %22 = sext i32 %20 to i64
  %23 = getelementptr inbounds [64 x i32], ptr getelementptr inbounds nuw (%struct.ldbState, ptr @ldb, i32 0, i32 6), i64 0, i64 %22
  store i32 %19, ptr %23, align 4, !tbaa !19
  store i32 1, ptr %2, align 4
  br label %25

24:                                               ; preds = %15, %11
  store i32 0, ptr %2, align 4
  br label %25

25:                                               ; preds = %24, %18, %10
  %26 = load i32, ptr %2, align 4
  ret i32 %26
}