; Function Attrs: nofree norecurse nosync nounwind memory(readwrite, argmem: none, inaccessiblemem: none) uwtable
define dso_local range(i32 0, 2) i32 @ldbAddBreakpoint(i32 noundef %0) local_unnamed_addr #15 {
  %2 = icmp slt i32 %0, 1
  %3 = load i32, ptr getelementptr inbounds nuw (i8, ptr @ldb, i64 320), align 8
  %4 = icmp sgt i32 %0, %3
  %or.cond9 = select i1 %2, i1 true, i1 %4
  br i1 %or.cond9, label %ldbIsBreakpoint.exit.thread, label %5

5:                                                ; preds = %1
  %6 = load i32, ptr getelementptr inbounds nuw (i8, ptr @ldb, i64 296), align 8, !tbaa !140
  %7 = icmp sgt i32 %6, 0
  br i1 %7, label %.lr.ph.preheader.i, label %ldbIsBreakpoint.exit.thread12

.lr.ph.preheader.i:                               ; preds = %5
  %wide.trip.count.i = zext nneg i32 %6 to i64
  br label %.lr.ph.i

8:                                                ; preds = %.lr.ph.i
  %indvars.iv.next.i = add nuw nsw i64 %indvars.iv.i, 1
  %exitcond.not.i = icmp eq i64 %indvars.iv.next.i, %wide.trip.count.i
  br i1 %exitcond.not.i, label %ldbIsBreakpoint.exit, label %.lr.ph.i, !llvm.loop !154

.lr.ph.i:                                         ; preds = %8, %.lr.ph.preheader.i
  %indvars.iv.i = phi i64 [ 0, %.lr.ph.preheader.i ], [ %indvars.iv.next.i, %8 ]
  %9 = getelementptr inbounds nuw [64 x i32], ptr getelementptr inbounds nuw (i8, ptr @ldb, i64 40), i64 0, i64 %indvars.iv.i
  %10 = load i32, ptr %9, align 4, !tbaa !91
  %11 = icmp eq i32 %10, %0
  br i1 %11, label %ldbIsBreakpoint.exit.thread, label %8

ldbIsBreakpoint.exit:                             ; preds = %8
  %.not = icmp eq i32 %6, 64
  br i1 %.not, label %ldbIsBreakpoint.exit.thread, label %ldbIsBreakpoint.exit.thread12

ldbIsBreakpoint.exit.thread12:                    ; preds = %5, %ldbIsBreakpoint.exit
  %12 = add nsw i32 %6, 1
  store i32 %12, ptr getelementptr inbounds nuw (i8, ptr @ldb, i64 296), align 8, !tbaa !140
  %13 = sext i32 %6 to i64
  %14 = getelementptr inbounds [64 x i32], ptr getelementptr inbounds nuw (i8, ptr @ldb, i64 40), i64 0, i64 %13
  store i32 %0, ptr %14, align 4, !tbaa !91
  br label %ldbIsBreakpoint.exit.thread

ldbIsBreakpoint.exit.thread:                      ; preds = %.lr.ph.i, %ldbIsBreakpoint.exit, %1, %ldbIsBreakpoint.exit.thread12
  %.0 = phi i32 [ 1, %ldbIsBreakpoint.exit.thread12 ], [ 0, %1 ], [ 0, %ldbIsBreakpoint.exit ], [ 0, %.lr.ph.i ]
  ret i32 %.0
}